; Function Attrs: mustprogress uwtable
define dso_local noundef ptr @_ZN4Luau5cloneEPKNS_4TypeERNS_9TypeArenaERNS_10CloneStateE(ptr noundef %0, ptr noundef nonnull align 8 dereferenceable(88) %1, ptr noundef nonnull align 8 dereferenceable(120) %2) local_unnamed_addr #2 personality ptr @__gxx_personality_v0 {
  %4 = alloca %"class.Luau::(anonymous namespace)::TypeCloner", align 8
  %5 = getelementptr inbounds nuw i8, ptr %0, i64 344
  %6 = load i8, ptr %5, align 8, !tbaa !74, !range !14, !noundef !15
  %7 = trunc nuw i8 %6 to i1
  br i1 %7, label %39, label %8

8:                                                ; preds = %3
  call void @llvm.lifetime.start.p0(i64 80, ptr nonnull %4) #20
  %.sroa.0.0.copyload = load ptr, ptr %2, align 8, !tbaa !16
  %9 = getelementptr inbounds nuw i8, ptr %2, i64 8
  %10 = getelementptr inbounds nuw i8, ptr %2, i64 64
  store ptr %1, ptr %4, align 8, !tbaa !18
  %11 = getelementptr inbounds nuw i8, ptr %4, i64 8
  store ptr %.sroa.0.0.copyload, ptr %11, align 8, !tbaa !16
  %12 = getelementptr inbounds nuw i8, ptr %4, i64 16
  call void @llvm.memset.p0.i64(ptr noundef nonnull align 8 dereferenceable(24) %12, i8 0, i64 24, i1 false)
  %13 = getelementptr inbounds nuw i8, ptr %4, i64 40
  store ptr %9, ptr %13, align 8, !tbaa !19
  %14 = getelementptr inbounds nuw i8, ptr %4, i64 48
  store ptr %10, ptr %14, align 8, !tbaa !21
  %15 = getelementptr inbounds nuw i8, ptr %4, i64 56
  call void @llvm.memset.p0.i64(ptr noundef nonnull align 8 dereferenceable(20) %15, i8 0, i64 20, i1 false)
  %16 = invoke fastcc noundef ptr @_ZN4Luau12_GLOBAL__N_110TypeCloner5cloneEPKNS_4TypeE(ptr noundef nonnull align 8 dereferenceable(76) %4, ptr noundef nonnull %0)
          to label %17 unwind label %37

17:                                               ; preds = %8
  %18 = load ptr, ptr %12, align 8, !tbaa !38
  %19 = getelementptr inbounds nuw i8, ptr %4, i64 24
  %20 = load ptr, ptr %19, align 8, !tbaa !39
  %.not4.i.i.i.i.i = icmp eq ptr %18, %20
  br i1 %.not4.i.i.i.i.i, label %_ZSt8_DestroyIPN4Luau7VariantIJPKNS0_4TypeEPKNS0_11TypePackVarEEEES8_EvT_SA_RSaIT0_E.exit.i.i, label %.lr.ph.i.i.i.i.i

.lr.ph.i.i.i.i.i:                                 ; preds = %17, %_ZSt8_DestroyIN4Luau7VariantIJPKNS0_4TypeEPKNS0_11TypePackVarEEEEEvPT_.exit.i.i.i.i.i
  %.05.i.i.i.i.i = phi ptr [ %29, %_ZSt8_DestroyIN4Luau7VariantIJPKNS0_4TypeEPKNS0_11TypePackVarEEEEEvPT_.exit.i.i.i.i.i ], [ %18, %17 ]
  %21 = load i32, ptr %.05.i.i.i.i.i, align 8, !tbaa !40
  %22 = sext i32 %21 to i64
  %23 = getelementptr inbounds [2 x ptr], ptr @_ZN4Luau7VariantIJPKNS_4TypeEPKNS_11TypePackVarEEE9tableDtorE, i64 0, i64 %22
  %24 = load ptr, ptr %23, align 8, !tbaa !42
  %25 = getelementptr inbounds nuw i8, ptr %.05.i.i.i.i.i, i64 8
  invoke void %24(ptr noundef nonnull %25)
          to label %_ZSt8_DestroyIN4Luau7VariantIJPKNS0_4TypeEPKNS0_11TypePackVarEEEEEvPT_.exit.i.i.i.i.i unwind label %26

26:                                               ; preds = %.lr.ph.i.i.i.i.i
  %27 = landingpad { ptr, i32 }
          catch ptr null
  %28 = extractvalue { ptr, i32 } %27, 0
  call void @__clang_call_terminate(ptr %28) #21
  unreachable

_ZSt8_DestroyIN4Luau7VariantIJPKNS0_4TypeEPKNS0_11TypePackVarEEEEEvPT_.exit.i.i.i.i.i: ; preds = %.lr.ph.i.i.i.i.i
  %29 = getelementptr inbounds nuw i8, ptr %.05.i.i.i.i.i, i64 16
  %.not.i.i.i.i.i = icmp eq ptr %29, %20
  br i1 %.not.i.i.i.i.i, label %_ZSt8_DestroyIPN4Luau7VariantIJPKNS0_4TypeEPKNS0_11TypePackVarEEEES8_EvT_SA_RSaIT0_E.exitthread-pre-split.i.i, label %.lr.ph.i.i.i.i.i, !llvm.loop !43

_ZSt8_DestroyIPN4Luau7VariantIJPKNS0_4TypeEPKNS0_11TypePackVarEEEES8_EvT_SA_RSaIT0_E.exitthread-pre-split.i.i: ; preds = %_ZSt8_DestroyIN4Luau7VariantIJPKNS0_4TypeEPKNS0_11TypePackVarEEEEEvPT_.exit.i.i.i.i.i
  %.pr.i.i = load ptr, ptr %12, align 8, !tbaa !38
  br label %_ZSt8_DestroyIPN4Luau7VariantIJPKNS0_4TypeEPKNS0_11TypePackVarEEEES8_EvT_SA_RSaIT0_E.exit.i.i

_ZSt8_DestroyIPN4Luau7VariantIJPKNS0_4TypeEPKNS0_11TypePackVarEEEES8_EvT_SA_RSaIT0_E.exit.i.i: ; preds = %_ZSt8_DestroyIPN4Luau7VariantIJPKNS0_4TypeEPKNS0_11TypePackVarEEEES8_EvT_SA_RSaIT0_E.exitthread-pre-split.i.i, %17
  %30 = phi ptr [ %.pr.i.i, %_ZSt8_DestroyIPN4Luau7VariantIJPKNS0_4TypeEPKNS0_11TypePackVarEEEES8_EvT_SA_RSaIT0_E.exitthread-pre-split.i.i ], [ %18, %17 ]
  %.not.i.i.i.i = icmp eq ptr %30, null
  br i1 %.not.i.i.i.i, label %_ZN4Luau12_GLOBAL__N_110TypeClonerD2Ev.exit, label %31

31:                                               ; preds = %_ZSt8_DestroyIPN4Luau7VariantIJPKNS0_4TypeEPKNS0_11TypePackVarEEEES8_EvT_SA_RSaIT0_E.exit.i.i
  %32 = getelementptr inbounds nuw i8, ptr %4, i64 32
  %33 = load ptr, ptr %32, align 8, !tbaa !45
  %34 = ptrtoint ptr %33 to i64
  %35 = ptrtoint ptr %30 to i64
  %36 = sub i64 %34, %35
  call void @_ZdlPvm(ptr noundef nonnull %30, i64 noundef %36) #22
  br label %_ZN4Luau12_GLOBAL__N_110TypeClonerD2Ev.exit

_ZN4Luau12_GLOBAL__N_110TypeClonerD2Ev.exit:      ; preds = %_ZSt8_DestroyIPN4Luau7VariantIJPKNS0_4TypeEPKNS0_11TypePackVarEEEES8_EvT_SA_RSaIT0_E.exit.i.i, %31
  call void @llvm.lifetime.end.p0(i64 80, ptr nonnull %4) #20
  br label %39

37:                                               ; preds = %8
  %38 = landingpad { ptr, i32 }
          cleanup
  call fastcc void @_ZN4Luau12_GLOBAL__N_110TypeClonerD2Ev(ptr noundef nonnull align 8 dereferenceable(76) %4) #20
  call void @llvm.lifetime.end.p0(i64 80, ptr nonnull %4) #20
  resume { ptr, i32 } %38

39:                                               ; preds = %3, %_ZN4Luau12_GLOBAL__N_110TypeClonerD2Ev.exit
  %.0 = phi ptr [ %16, %_ZN4Luau12_GLOBAL__N_110TypeClonerD2Ev.exit ], [ %0, %3 ]
  ret ptr %.0
}